; Function Attrs: nounwind uwtable
define i32 @SUNStepper_FullRhs(ptr noundef %0, double noundef %1, ptr noundef %2, ptr noundef %3, i32 noundef %4) local_unnamed_addr #2 {
  %6 = getelementptr inbounds nuw i8, ptr %0, i64 8
  %7 = load ptr, ptr %6, align 8, !tbaa !13
  %8 = getelementptr inbounds nuw i8, ptr %7, i64 16
  %9 = load ptr, ptr %8, align 8, !tbaa !20
  %.not = icmp eq ptr %9, null
  br i1 %.not, label %12, label %10

10:                                               ; preds = %5
  %11 = tail call i32 %9(ptr noundef nonnull %0, double noundef %1, ptr noundef %2, ptr noundef %3, i32 noundef %4) #9
  br label %12

12:                                               ; preds = %5, %10
  %.0 = phi i32 [ %11, %10 ], [ -9985, %5 ]
  ret i32 %.0
}